Certificate:
    Data:
        Version: 3 (0x2)
        Serial Number: 14946549817259651319 (0xcf6ccfde5b70f0f7)
    Signature Algorithm: ecdsa-with-SHA256
        Issuer: C=UK, ST=Cambridgeshire, L=Cambridge, O=Rspamd, CN=rspamd.com/emailAddress=vsevolod@rspamd.com
        Validity
            Not Before: Mar 28 21:43:09 2015 GMT
            Not After : Mar 25 21:43:09 2025 GMT
        Subject: C=UK, ST=Cambridgeshire, L=Cambridge, O=Rspamd, CN=rspamd.com/emailAddress=vsevolod@rspamd.com
        Subject Public Key Info:
            Public Key Algorithm: id-ecPublicKey
                Public-Key: (256 bit)
                pub: 
                    04:be:14:05:85:62:27:bc:be:17:8e:d0:7e:59:7c:
                    89:38:d5:7f:20:74:57:89:44:42:8f:b3:f3:53:95:
                    b4:07:fa:13:13:e3:ba:bf:fc:c1:b2:96:f1:34:fc:
                    71:f2:97:88:f2:ae:91:e7:68:b8:a2:35:c1:d8:e8:
                    b4:33:cc:ab:2b
                ASN1 OID: prime256v1
        X509v3 extensions:
            X509v3 Subject Key Identifier: 
                92:A7:73:C7:62:5B:3B:0D:9B:4C:C5:89:F8:95:15:74:3F:49:84:07
            X509v3 Authority Key Identifier: 
                keyid:92:A7:73:C7:62:5B:3B:0D:9B:4C:C5:89:F8:95:15:74:3F:49:84:07

            X509v3 Basic Constraints: 
                CA:TRUE
            X509v3 Key Usage: 
                Certificate Sign, CRL Sign
            Netscape Cert Type: 
                SSL CA, S/MIME CA
            X509v3 Subject Alternative Name: 
                email:vsevolod@rspamd.com
            X509v3 Issuer Alternative Name: 
                email:vsevolod@rspamd.com
    Signature Algorithm: ecdsa-with-SHA256
         30:45:02:20:67:31:c4:42:be:9b:b4:4b:8a:85:33:8e:73:1e:
         a2:04:61:91:cb:b8:a0:05:66:b1:9f:87:b3:10:3f:c8:25:09:
         02:21:00:c7:f6:b6:df:df:97:ad:e1:e9:47:14:26:de:63:3f:
         61:ec:4c:ef:68:9f:91:19:52:5b:1b:50:d5:c5:43:6d:04
-----BEGIN CERTIFICATE-----
MIICszCCAlmgAwIBAgIJAM9sz95bcPD3MAoGCCqGSM49BAMCMIGEMQswCQYDVQQG
EwJVSzEXMBUGA1UECAwOQ2FtYnJpZGdlc2hpcmUxEjAQBgNVBAcMCUNhbWJyaWRn
ZTEPMA0GA1UECgwGUnNwYW1kMRMwEQYDVQQDDApyc3BhbWQuY29tMSIwIAYJKoZI
hvcNAQkBFhN2c2V2b2xvZEByc3BhbWQuY29tMB4XDTE1MDMyODIxNDMwOVoXDTI1
MDMyNTIxNDMwOVowgYQxCzAJBgNVBAYTAlVLMRcwFQYDVQQIDA5DYW1icmlkZ2Vz
aGlyZTESMBAGA1UEBwwJQ2FtYnJpZGdlMQ8wDQYDVQQKDAZSc3BhbWQxEzARBgNV
BAMMCnJzcGFtZC5jb20xIjAgBgkqhkiG9w0BCQEWE3ZzZXZvbG9kQHJzcGFtZC5j
b20wWTATBgcqhkjOPQIBBggqhkjOPQMBBwNCAAS+FAWFYie8vheO0H5ZfIk41X8g
dFeJREKPs/NTlbQH+hMT47q//MGylvE0/HHyl4jyrpHnaLiiNcHY6LQzzKsro4Gx
MIGuMB0GA1UdDgQWBBSSp3PHYls7DZtMxYn4lRV0P0mEBzAfBgNVHSMEGDAWgBSS
p3PHYls7DZtMxYn4lRV0P0mEBzAMBgNVHRMEBTADAQH/MAsGA1UdDwQEAwIBBjAR
BglghkgBhvhCAQEEBAMCAQYwHgYDVR0RBBcwFYETdnNldm9sb2RAcnNwYW1kLmNv
bTAeBgNVHRIEFzAVgRN2c2V2b2xvZEByc3BhbWQuY29tMAoGCCqGSM49BAMCA0gA
MEUCIGcxxEK+m7RLioUzjnMeogRhkcu4oAVmsZ+HsxA/yCUJAiEAx/a239+XreHp
RxQm3mM/YexM72ifkRlSWxtQ1cVDbQQ=
-----END CERTIFICATE-----
